target datalayout = "e-m:e-p270:32:32-p271:32:32-p272:64:64-i64:64-i128:128-f80:128-n8:16:32:64-S128"
target triple = "x86_64-pc-linux-gnu"

%struct.Py_complex = type { double, double }

@PyExc_ValueError = external global ptr, align 8
@.str.25 = private unnamed_addr constant [18 x i8] c"math domain error\00", align 1
@PyExc_OverflowError = external global ptr, align 8
@.str.26 = private unnamed_addr constant [17 x i8] c"math range error\00", align 1
@acos_special_values = internal global [7 x [7 x %struct.Py_complex]] zeroinitializer, align 16

; Function Attrs: nounwind uwtable
define internal i32 @special_type(double noundef %0) #0 {
  %2 = alloca i32, align 4
  %3 = alloca double, align 8
  store double %0, ptr %3, align 8, !tbaa !9
  %4 = load double, ptr %3, align 8, !tbaa !9
  %5 = call i1 @llvm.is.fpclass.f64(double %4, i32 504)
  br i1 %5, label %6, label %21

6:                                                ; preds = %1
  %7 = load double, ptr %3, align 8, !tbaa !9
  %8 = fcmp une double %7, 0.000000e+00
  br i1 %8, label %9, label %15

9:                                                ; preds = %6
  %10 = load double, ptr %3, align 8, !tbaa !9
  %11 = call double @llvm.copysign.f64(double 1.000000e+00, double %10)
  %12 = fcmp oeq double %11, 1.000000e+00
  br i1 %12, label %13, label %14

13:                                               ; preds = %9
  store i32 4, ptr %2, align 4
  br label %31

14:                                               ; preds = %9
  store i32 1, ptr %2, align 4
  br label %31

15:                                               ; preds = %6
  %16 = load double, ptr %3, align 8, !tbaa !9
  %17 = call double @llvm.copysign.f64(double 1.000000e+00, double %16)
  %18 = fcmp oeq double %17, 1.000000e+00
  br i1 %18, label %19, label %20

19:                                               ; preds = %15
  store i32 3, ptr %2, align 4
  br label %31

20:                                               ; preds = %15
  store i32 2, ptr %2, align 4
  br label %31

21:                                               ; preds = %1
  %22 = load double, ptr %3, align 8, !tbaa !9
  %23 = call i1 @llvm.is.fpclass.f64(double %22, i32 3)
  br i1 %23, label %24, label %25

24:                                               ; preds = %21
  store i32 6, ptr %2, align 4
  br label %31

25:                                               ; preds = %21
  %26 = load double, ptr %3, align 8, !tbaa !9
  %27 = call double @llvm.copysign.f64(double 1.000000e+00, double %26)
  %28 = fcmp oeq double %27, 1.000000e+00
  br i1 %28, label %29, label %30

29:                                               ; preds = %25
  store i32 5, ptr %2, align 4
  br label %31

30:                                               ; preds = %25
  store i32 0, ptr %2, align 4
  br label %31

31:                                               ; preds = %30, %29, %24, %20, %19, %14, %13
  %32 = load i32, ptr %2, align 4
  ret i32 %32
}

; Function Attrs: nounwind uwtable
define internal { double, double } @cmath_acos_impl(ptr noundef %0, double %1, double %2) #0 {
  %4 = alloca %struct.Py_complex, align 8
  %5 = alloca %struct.Py_complex, align 8
  %6 = alloca ptr, align 8
  %7 = alloca %struct.Py_complex, align 8
  %8 = alloca %struct.Py_complex, align 8
  %9 = alloca %struct.Py_complex, align 8
  %10 = alloca i32, align 4
  %11 = alloca %struct.Py_complex, align 8
  %12 = alloca %struct.Py_complex, align 8
  %13 = getelementptr inbounds nuw { double, double }, ptr %5, i32 0, i32 0
  store double %1, ptr %13, align 8
  %14 = getelementptr inbounds nuw { double, double }, ptr %5, i32 0, i32 1
  store double %2, ptr %14, align 8
  store ptr %0, ptr %6, align 8, !tbaa !3
  call void @llvm.lifetime.start.p0(i64 16, ptr %7) #8
  call void @llvm.lifetime.start.p0(i64 16, ptr %8) #8
  call void @llvm.lifetime.start.p0(i64 16, ptr %9) #8
  %15 = getelementptr inbounds nuw %struct.Py_complex, ptr %5, i32 0, i32 0
  %16 = load double, ptr %15, align 8, !tbaa !17
  %17 = call i1 @llvm.is.fpclass.f64(double %16, i32 504)
  br i1 %17, label %18, label %22

18:                                               ; preds = %3
  %19 = getelementptr inbounds nuw %struct.Py_complex, ptr %5, i32 0, i32 1
  %20 = load double, ptr %19, align 8, !tbaa !19
  %21 = call i1 @llvm.is.fpclass.f64(double %20, i32 504)
  br i1 %21, label %34, label %22

22:                                               ; preds = %18, %3
  %23 = call ptr @__errno_location() #9
  store i32 0, ptr %23, align 4, !tbaa !11
  %24 = getelementptr inbounds nuw %struct.Py_complex, ptr %5, i32 0, i32 0
  %25 = load double, ptr %24, align 8, !tbaa !17
  %26 = call i32 @special_type(double noundef %25)
  %27 = zext i32 %26 to i64
  %28 = getelementptr [7 x [7 x %struct.Py_complex]], ptr @acos_special_values, i64 0, i64 %27
  %29 = getelementptr inbounds nuw %struct.Py_complex, ptr %5, i32 0, i32 1
  %30 = load double, ptr %29, align 8, !tbaa !19
  %31 = call i32 @special_type(double noundef %30)
  %32 = zext i32 %31 to i64
  %33 = getelementptr [7 x %struct.Py_complex], ptr %28, i64 0, i64 %32
  call void @llvm.memcpy.p0.p0.i64(ptr align 8 %4, ptr align 16 %33, i64 16, i1 false), !tbaa.struct !8
  store i32 1, ptr %10, align 4
  br label %124

34:                                               ; preds = %18
  %35 = getelementptr inbounds nuw %struct.Py_complex, ptr %5, i32 0, i32 0
  %36 = load double, ptr %35, align 8, !tbaa !17
  %37 = call double @llvm.fabs.f64(double %36)
  %38 = fcmp ogt double %37, 0x7FCFFFFFFFFFFFFF
  br i1 %38, label %44, label %39

39:                                               ; preds = %34
  %40 = getelementptr inbounds nuw %struct.Py_complex, ptr %5, i32 0, i32 1
  %41 = load double, ptr %40, align 8, !tbaa !19
  %42 = call double @llvm.fabs.f64(double %41)
  %43 = fcmp ogt double %42, 0x7FCFFFFFFFFFFFFF
  br i1 %43, label %44, label %66

44:                                               ; preds = %39, %34
  %45 = getelementptr inbounds nuw %struct.Py_complex, ptr %5, i32 0, i32 1
  %46 = load double, ptr %45, align 8, !tbaa !19
  %47 = call double @llvm.fabs.f64(double %46)
  %48 = getelementptr inbounds nuw %struct.Py_complex, ptr %5, i32 0, i32 0
  %49 = load double, ptr %48, align 8, !tbaa !17
  %50 = call double @atan2(double noundef %47, double noundef %49) #8, !tbaa !11
  %51 = getelementptr inbounds nuw %struct.Py_complex, ptr %9, i32 0, i32 0
  store double %50, ptr %51, align 8, !tbaa !17
  %52 = getelementptr inbounds nuw %struct.Py_complex, ptr %5, i32 0, i32 0
  %53 = load double, ptr %52, align 8, !tbaa !17
  %54 = fdiv double %53, 2.000000e+00
  %55 = getelementptr inbounds nuw %struct.Py_complex, ptr %5, i32 0, i32 1
  %56 = load double, ptr %55, align 8, !tbaa !19
  %57 = fdiv double %56, 2.000000e+00
  %58 = call double @hypot(double noundef %54, double noundef %57) #8, !tbaa !11
  %59 = call double @log(double noundef %58) #8, !tbaa !11
  %60 = fadd double %59, 0x3FF62E42FEFA39EF
  %61 = getelementptr inbounds nuw %struct.Py_complex, ptr %5, i32 0, i32 1
  %62 = load double, ptr %61, align 8, !tbaa !19
  %63 = call double @llvm.copysign.f64(double %60, double %62)
  %64 = fneg double %63
  %65 = getelementptr inbounds nuw %struct.Py_complex, ptr %9, i32 0, i32 1
  store double %64, ptr %65, align 8, !tbaa !19
  br label %122

66:                                               ; preds = %39
  %67 = getelementptr inbounds nuw %struct.Py_complex, ptr %5, i32 0, i32 0
  %68 = load double, ptr %67, align 8, !tbaa !17
  %69 = fsub double 1.000000e+00, %68
  %70 = getelementptr inbounds nuw %struct.Py_complex, ptr %7, i32 0, i32 0
  store double %69, ptr %70, align 8, !tbaa !17
  %71 = getelementptr inbounds nuw %struct.Py_complex, ptr %5, i32 0, i32 1
  %72 = load double, ptr %71, align 8, !tbaa !19
  %73 = fneg double %72
  %74 = getelementptr inbounds nuw %struct.Py_complex, ptr %7, i32 0, i32 1
  store double %73, ptr %74, align 8, !tbaa !19
  call void @llvm.lifetime.start.p0(i64 16, ptr %11) #8
  %75 = load ptr, ptr %6, align 8, !tbaa !3
  %76 = getelementptr inbounds nuw { double, double }, ptr %7, i32 0, i32 0
  %77 = load double, ptr %76, align 8
  %78 = getelementptr inbounds nuw { double, double }, ptr %7, i32 0, i32 1
  %79 = load double, ptr %78, align 8
  %80 = call { double, double } @cmath_sqrt_impl(ptr noundef %75, double %77, double %79)
  %81 = getelementptr inbounds nuw { double, double }, ptr %11, i32 0, i32 0
  %82 = extractvalue { double, double } %80, 0
  store double %82, ptr %81, align 8
  %83 = getelementptr inbounds nuw { double, double }, ptr %11, i32 0, i32 1
  %84 = extractvalue { double, double } %80, 1
  store double %84, ptr %83, align 8
  call void @llvm.memcpy.p0.p0.i64(ptr align 8 %7, ptr align 8 %11, i64 16, i1 false), !tbaa.struct !8
  call void @llvm.lifetime.end.p0(i64 16, ptr %11) #8
  %85 = getelementptr inbounds nuw %struct.Py_complex, ptr %5, i32 0, i32 0
  %86 = load double, ptr %85, align 8, !tbaa !17
  %87 = fadd double 1.000000e+00, %86
  %88 = getelementptr inbounds nuw %struct.Py_complex, ptr %8, i32 0, i32 0
  store double %87, ptr %88, align 8, !tbaa !17
  %89 = getelementptr inbounds nuw %struct.Py_complex, ptr %5, i32 0, i32 1
  %90 = load double, ptr %89, align 8, !tbaa !19
  %91 = getelementptr inbounds nuw %struct.Py_complex, ptr %8, i32 0, i32 1
  store double %90, ptr %91, align 8, !tbaa !19
  call void @llvm.lifetime.start.p0(i64 16, ptr %12) #8
  %92 = load ptr, ptr %6, align 8, !tbaa !3
  %93 = getelementptr inbounds nuw { double, double }, ptr %8, i32 0, i32 0
  %94 = load double, ptr %93, align 8
  %95 = getelementptr inbounds nuw { double, double }, ptr %8, i32 0, i32 1
  %96 = load double, ptr %95, align 8
  %97 = call { double, double } @cmath_sqrt_impl(ptr noundef %92, double %94, double %96)
  %98 = getelementptr inbounds nuw { double, double }, ptr %12, i32 0, i32 0
  %99 = extractvalue { double, double } %97, 0
  store double %99, ptr %98, align 8
  %100 = getelementptr inbounds nuw { double, double }, ptr %12, i32 0, i32 1
  %101 = extractvalue { double, double } %97, 1
  store double %101, ptr %100, align 8
  call void @llvm.memcpy.p0.p0.i64(ptr align 8 %8, ptr align 8 %12, i64 16, i1 false), !tbaa.struct !8
  call void @llvm.lifetime.end.p0(i64 16, ptr %12) #8
  %102 = getelementptr inbounds nuw %struct.Py_complex, ptr %7, i32 0, i32 0
  %103 = load double, ptr %102, align 8, !tbaa !17
  %104 = getelementptr inbounds nuw %struct.Py_complex, ptr %8, i32 0, i32 0
  %105 = load double, ptr %104, align 8, !tbaa !17
  %106 = call double @atan2(double noundef %103, double noundef %105) #8, !tbaa !11
  %107 = fmul double 2.000000e+00, %106
  %108 = getelementptr inbounds nuw %struct.Py_complex, ptr %9, i32 0, i32 0
  store double %107, ptr %108, align 8, !tbaa !17
  %109 = getelementptr inbounds nuw %struct.Py_complex, ptr %8, i32 0, i32 0
  %110 = load double, ptr %109, align 8, !tbaa !17
  %111 = getelementptr inbounds nuw %struct.Py_complex, ptr %7, i32 0, i32 1
  %112 = load double, ptr %111, align 8, !tbaa !19
  %113 = getelementptr inbounds nuw %struct.Py_complex, ptr %8, i32 0, i32 1
  %114 = load double, ptr %113, align 8, !tbaa !19
  %115 = getelementptr inbounds nuw %struct.Py_complex, ptr %7, i32 0, i32 0
  %116 = load double, ptr %115, align 8, !tbaa !17
  %117 = fmul double %114, %116
  %118 = fneg double %117
  %119 = call double @llvm.fmuladd.f64(double %110, double %112, double %118)
  %120 = call double @asinh(double noundef %119) #8, !tbaa !11
  %121 = getelementptr inbounds nuw %struct.Py_complex, ptr %9, i32 0, i32 1
  store double %120, ptr %121, align 8, !tbaa !19
  br label %122

122:                                              ; preds = %66, %44
  %123 = call ptr @__errno_location() #9
  store i32 0, ptr %123, align 4, !tbaa !11
  call void @llvm.memcpy.p0.p0.i64(ptr align 8 %4, ptr align 8 %9, i64 16, i1 false), !tbaa.struct !8
  store i32 1, ptr %10, align 4
  br label %124

124:                                              ; preds = %122, %22
  call void @llvm.lifetime.end.p0(i64 16, ptr %9) #8
  call void @llvm.lifetime.end.p0(i64 16, ptr %8) #8
  call void @llvm.lifetime.end.p0(i64 16, ptr %7) #8
  %125 = load { double, double }, ptr %4, align 8
  ret { double, double } %125
}

; Function Attrs: nounwind uwtable
define internal ptr @cmath_acos(ptr noundef %0, ptr noundef %1) #0 {
  %3 = alloca ptr, align 8
  %4 = alloca ptr, align 8
  %5 = alloca ptr, align 8
  %6 = alloca %struct.Py_complex, align 8
  %7 = alloca %struct.Py_complex, align 8
  %8 = alloca %struct.Py_complex, align 8
  %9 = alloca %struct.Py_complex, align 8
  store ptr %0, ptr %3, align 8, !tbaa !3
  store ptr %1, ptr %4, align 8, !tbaa !3
  call void @llvm.lifetime.start.p0(i64 8, ptr %5) #8
  store ptr null, ptr %5, align 8, !tbaa !3
  call void @llvm.lifetime.start.p0(i64 16, ptr %6) #8
  call void @llvm.lifetime.start.p0(i64 16, ptr %7) #8
  call void @llvm.lifetime.start.p0(i64 16, ptr %8) #8
  %10 = load ptr, ptr %4, align 8, !tbaa !3
  %11 = call { double, double } @PyComplex_AsCComplex(ptr noundef %10)
  %12 = getelementptr inbounds nuw { double, double }, ptr %8, i32 0, i32 0
  %13 = extractvalue { double, double } %11, 0
  store double %13, ptr %12, align 8
  %14 = getelementptr inbounds nuw { double, double }, ptr %8, i32 0, i32 1
  %15 = extractvalue { double, double } %11, 1
  store double %15, ptr %14, align 8
  call void @llvm.memcpy.p0.p0.i64(ptr align 8 %6, ptr align 8 %8, i64 16, i1 false), !tbaa.struct !8
  call void @llvm.lifetime.end.p0(i64 16, ptr %8) #8
  %16 = call ptr @PyErr_Occurred()
  %17 = icmp ne ptr %16, null
  br i1 %17, label %18, label %19

18:                                               ; preds = %2
  br label %50

19:                                               ; preds = %2
  %20 = call ptr @__errno_location() #9
  store i32 0, ptr %20, align 4, !tbaa !11
  call void @llvm.lifetime.start.p0(i64 16, ptr %9) #8
  %21 = load ptr, ptr %3, align 8, !tbaa !3
  %22 = getelementptr inbounds nuw { double, double }, ptr %6, i32 0, i32 0
  %23 = load double, ptr %22, align 8
  %24 = getelementptr inbounds nuw { double, double }, ptr %6, i32 0, i32 1
  %25 = load double, ptr %24, align 8
  %26 = call { double, double } @cmath_acos_impl(ptr noundef %21, double %23, double %25)
  %27 = getelementptr inbounds nuw { double, double }, ptr %9, i32 0, i32 0
  %28 = extractvalue { double, double } %26, 0
  store double %28, ptr %27, align 8
  %29 = getelementptr inbounds nuw { double, double }, ptr %9, i32 0, i32 1
  %30 = extractvalue { double, double } %26, 1
  store double %30, ptr %29, align 8
  call void @llvm.memcpy.p0.p0.i64(ptr align 8 %7, ptr align 8 %9, i64 16, i1 false), !tbaa.struct !8
  call void @llvm.lifetime.end.p0(i64 16, ptr %9) #8
  %31 = call ptr @__errno_location() #9
  %32 = load i32, ptr %31, align 4, !tbaa !11
  %33 = icmp eq i32 %32, 33
  br i1 %33, label %34, label %36

34:                                               ; preds = %19
  %35 = load ptr, ptr @PyExc_ValueError, align 8, !tbaa !3
  call void @PyErr_SetString(ptr noundef %35, ptr noundef @.str.25)
  br label %50

36:                                               ; preds = %19
  %37 = call ptr @__errno_location() #9
  %38 = load i32, ptr %37, align 4, !tbaa !11
  %39 = icmp eq i32 %38, 34
  br i1 %39, label %40, label %42

40:                                               ; preds = %36
  %41 = load ptr, ptr @PyExc_OverflowError, align 8, !tbaa !3
  call void @PyErr_SetString(ptr noundef %41, ptr noundef @.str.26)
  br label %50

42:                                               ; preds = %36
  %43 = getelementptr inbounds nuw { double, double }, ptr %7, i32 0, i32 0
  %44 = load double, ptr %43, align 8
  %45 = getelementptr inbounds nuw { double, double }, ptr %7, i32 0, i32 1
  %46 = load double, ptr %45, align 8
  %47 = call ptr @PyComplex_FromCComplex(double %44, double %46)
  store ptr %47, ptr %5, align 8, !tbaa !3
  br label %48

48:                                               ; preds = %42
  br label %49

49:                                               ; preds = %48
  br label %50

50:                                               ; preds = %49, %40, %34, %18
  %51 = load ptr, ptr %5, align 8, !tbaa !3
  call void @llvm.lifetime.end.p0(i64 16, ptr %7) #8
  call void @llvm.lifetime.end.p0(i64 16, ptr %6) #8
  call void @llvm.lifetime.end.p0(i64 8, ptr %5) #8
  ret ptr %51
}