; Function Attrs: nounwind uwtable
define internal ptr @cmath_acos(ptr readnone captures(none) %0, ptr noundef %1) #0 {
  %3 = tail call { double, double } @PyComplex_AsCComplex(ptr noundef %1) #11
  %4 = tail call ptr @PyErr_Occurred() #11
  %.not = icmp eq ptr %4, null
  br i1 %.not, label %5, label %67

5:                                                ; preds = %2
  %6 = extractvalue { double, double } %3, 1
  %7 = extractvalue { double, double } %3, 0
  %8 = tail call ptr @__errno_location() #12
  store i32 0, ptr %8, align 4, !tbaa !3
  %9 = tail call double @llvm.fabs.f64(double %7)
  %10 = fcmp ueq double %9, 0x7FF0000000000000
  %11 = tail call double @llvm.fabs.f64(double %6)
  %12 = fcmp ueq double %11, 0x7FF0000000000000
  %or.cond.i = select i1 %10, i1 true, i1 %12
  br i1 %or.cond.i, label %13, label %36

13:                                               ; preds = %5
  br i1 %10, label %20, label %14

14:                                               ; preds = %13
  %15 = fcmp une double %7, 0.000000e+00
  %16 = tail call double @llvm.copysign.f64(double 1.000000e+00, double %7)
  %17 = fcmp oeq double %16, 1.000000e+00
  br i1 %15, label %18, label %19

18:                                               ; preds = %14
  %..i.i = select i1 %17, i64 4, i64 1
  br label %special_type.exit.i

19:                                               ; preds = %14
  %.7.i.i = select i1 %17, i64 3, i64 2
  br label %special_type.exit.i

20:                                               ; preds = %13
  %21 = fcmp uno double %7, 0.000000e+00
  br i1 %21, label %special_type.exit.i, label %22

22:                                               ; preds = %20
  %23 = tail call double @llvm.copysign.f64(double 1.000000e+00, double %7)
  %24 = fcmp oeq double %23, 1.000000e+00
  %.8.i.i = select i1 %24, i64 5, i64 0
  br label %special_type.exit.i

special_type.exit.i:                              ; preds = %22, %20, %19, %18
  %.0.i.i = phi i64 [ %..i.i, %18 ], [ %.7.i.i, %19 ], [ 6, %20 ], [ %.8.i.i, %22 ]
  br i1 %12, label %31, label %25

25:                                               ; preds = %special_type.exit.i
  %26 = fcmp une double %6, 0.000000e+00
  %27 = tail call double @llvm.copysign.f64(double 1.000000e+00, double %6)
  %28 = fcmp oeq double %27, 1.000000e+00
  br i1 %26, label %29, label %30

29:                                               ; preds = %25
  %..i34.i = select i1 %28, i64 4, i64 1
  br label %cmath_acos_impl.exit

30:                                               ; preds = %25
  %.7.i32.i = select i1 %28, i64 3, i64 2
  br label %cmath_acos_impl.exit

31:                                               ; preds = %special_type.exit.i
  %32 = fcmp uno double %6, 0.000000e+00
  br i1 %32, label %cmath_acos_impl.exit, label %33

33:                                               ; preds = %31
  %34 = tail call double @llvm.copysign.f64(double 1.000000e+00, double %6)
  %35 = fcmp oeq double %34, 1.000000e+00
  %.8.i35.i = select i1 %35, i64 5, i64 0
  br label %cmath_acos_impl.exit

36:                                               ; preds = %5
  %37 = fcmp ogt double %9, 0x7FCFFFFFFFFFFFFF
  %38 = fcmp ogt double %11, 0x7FCFFFFFFFFFFFFF
  %or.cond31.i = select i1 %37, i1 true, i1 %38
  br i1 %or.cond31.i, label %39, label %48

39:                                               ; preds = %36
  %40 = tail call double @atan2(double noundef %11, double noundef %7) #11, !tbaa !3
  %41 = fmul double %7, 5.000000e-01
  %42 = fmul double %6, 5.000000e-01
  %43 = tail call double @hypot(double noundef %41, double noundef %42) #11, !tbaa !3
  %44 = tail call double @log(double noundef %43) #11, !tbaa !3
  %45 = fadd double %44, 0x3FF62E42FEFA39EF
  %46 = fneg double %6
  %47 = tail call double @llvm.copysign.f64(double %45, double %46)
  br label %cmath_acos_impl.exit.thread

48:                                               ; preds = %36
  %49 = fsub double 1.000000e+00, %7
  %50 = fneg double %6
  %51 = tail call fastcc { double, double } @cmath_sqrt_impl(double %49, double %50)
  %52 = extractvalue { double, double } %51, 0
  %53 = extractvalue { double, double } %51, 1
  %54 = fadd double %7, 1.000000e+00
  %55 = tail call fastcc { double, double } @cmath_sqrt_impl(double %54, double %6)
  %56 = extractvalue { double, double } %55, 0
  %57 = extractvalue { double, double } %55, 1
  %58 = tail call double @atan2(double noundef %52, double noundef %56) #11, !tbaa !3
  %59 = fmul double %58, 2.000000e+00
  %60 = fneg double %52
  %61 = fmul double %57, %60
  %62 = tail call double @llvm.fmuladd.f64(double %56, double %53, double %61)
  %63 = tail call double @asinh(double noundef %62) #11, !tbaa !3
  br label %cmath_acos_impl.exit.thread

cmath_acos_impl.exit.thread:                      ; preds = %39, %48
  %.sroa.03.0.i = phi double [ %40, %39 ], [ %59, %48 ]
  %.sroa.5.0.i = phi double [ %47, %39 ], [ %63, %48 ]
  store i32 0, ptr %8, align 4, !tbaa !3
  br label %65

cmath_acos_impl.exit:                             ; preds = %29, %30, %31, %33
  %.0.i33.i = phi i64 [ %..i34.i, %29 ], [ %.7.i32.i, %30 ], [ 6, %31 ], [ %.8.i35.i, %33 ]
  %64 = getelementptr [7 x [7 x %struct.Py_complex]], ptr @acos_special_values, i64 0, i64 %.0.i.i, i64 %.0.i33.i
  %.sroa.028.0.copyload.i = load double, ptr %64, align 16, !tbaa !7
  %.sroa.3.0..sroa_idx.i = getelementptr inbounds nuw i8, ptr %64, i64 8
  %.sroa.3.0.copyload.i = load double, ptr %.sroa.3.0..sroa_idx.i, align 8, !tbaa !7
  br label %65

65:                                               ; preds = %cmath_acos_impl.exit, %cmath_acos_impl.exit.thread
  %.sroa.3.0.i15 = phi double [ %.sroa.5.0.i, %cmath_acos_impl.exit.thread ], [ %.sroa.3.0.copyload.i, %cmath_acos_impl.exit ]
  %.sroa.028.0.i14 = phi double [ %.sroa.03.0.i, %cmath_acos_impl.exit.thread ], [ %.sroa.028.0.copyload.i, %cmath_acos_impl.exit ]
  %66 = tail call ptr @PyComplex_FromCComplex(double %.sroa.028.0.i14, double %.sroa.3.0.i15) #11
  br label %67

67:                                               ; preds = %2, %65
  %.0 = phi ptr [ null, %2 ], [ %66, %65 ]
  ret ptr %.0
}